target datalayout = "e-m:e-p270:32:32-p271:32:32-p272:64:64-i64:64-i128:128-f80:128-n8:16:32:64-S128"
target triple = "x86_64-pc-linux-gnu"

%union.stbcc__global_clumpid = type { %struct.anon }
%struct.anon = type { i32 }
%struct.st_stbcc_grid = type { i32, i32, i32, i32, i32, [1024 x [128 x i8]], [1024 x [1024 x i16]], [32 x [32 x %struct.stbcc__cluster]] }
%struct.stbcc__cluster = type { i16, i8, i8, [512 x %struct.stbcc__clump], [128 x %struct.stbcc__relative_clumpid] }
%struct.stbcc__clump = type { %union.stbcc__global_clumpid, i8, i8, i8, i8 }
%struct.stbcc__relative_clumpid = type { i16 }

; Function Attrs: nounwind uwtable
define void @stbcc_init_grid(ptr noundef %0, ptr noundef %1, i32 noundef %2, i32 noundef %3) #0 {
  %5 = alloca ptr, align 8
  %6 = alloca ptr, align 8
  %7 = alloca i32, align 4
  %8 = alloca i32, align 4
  %9 = alloca i32, align 4
  %10 = alloca i32, align 4
  %11 = alloca i32, align 4
  %12 = alloca i8, align 1
  store ptr %0, ptr %5, align 8, !tbaa !3
  store ptr %1, ptr %6, align 8, !tbaa !68
  store i32 %2, ptr %7, align 4, !tbaa !8
  store i32 %3, ptr %8, align 4, !tbaa !8
  call void @llvm.lifetime.start.p0(i64 4, ptr %9) #4
  call void @llvm.lifetime.start.p0(i64 4, ptr %10) #4
  call void @llvm.lifetime.start.p0(i64 4, ptr %11) #4
  %13 = load i32, ptr %7, align 4, !tbaa !8
  %14 = load ptr, ptr %5, align 8, !tbaa !3
  %15 = getelementptr inbounds nuw %struct.st_stbcc_grid, ptr %14, i32 0, i32 0
  store i32 %13, ptr %15, align 4, !tbaa !70
  %16 = load i32, ptr %8, align 4, !tbaa !8
  %17 = load ptr, ptr %5, align 8, !tbaa !3
  %18 = getelementptr inbounds nuw %struct.st_stbcc_grid, ptr %17, i32 0, i32 1
  store i32 %16, ptr %18, align 4, !tbaa !71
  %19 = load i32, ptr %7, align 4, !tbaa !8
  %20 = ashr i32 %19, 5
  %21 = load ptr, ptr %5, align 8, !tbaa !3
  %22 = getelementptr inbounds nuw %struct.st_stbcc_grid, ptr %21, i32 0, i32 2
  store i32 %20, ptr %22, align 4, !tbaa !36
  %23 = load i32, ptr %8, align 4, !tbaa !8
  %24 = ashr i32 %23, 5
  %25 = load ptr, ptr %5, align 8, !tbaa !3
  %26 = getelementptr inbounds nuw %struct.st_stbcc_grid, ptr %25, i32 0, i32 3
  store i32 %24, ptr %26, align 4, !tbaa !38
  %27 = load ptr, ptr %5, align 8, !tbaa !3
  %28 = getelementptr inbounds nuw %struct.st_stbcc_grid, ptr %27, i32 0, i32 4
  store i32 0, ptr %28, align 4, !tbaa !44
  store i32 0, ptr %10, align 4, !tbaa !8
  br label %29

29:                                               ; preds = %82, %4
  %30 = load i32, ptr %10, align 4, !tbaa !8
  %31 = load i32, ptr %8, align 4, !tbaa !8
  %32 = icmp slt i32 %30, %31
  br i1 %32, label %33, label %85

33:                                               ; preds = %29
  store i32 0, ptr %9, align 4, !tbaa !8
  br label %34

34:                                               ; preds = %78, %33
  %35 = load i32, ptr %9, align 4, !tbaa !8
  %36 = load i32, ptr %7, align 4, !tbaa !8
  %37 = icmp slt i32 %35, %36
  br i1 %37, label %38, label %81

38:                                               ; preds = %34
  call void @llvm.lifetime.start.p0(i64 1, ptr %12) #4
  store i8 0, ptr %12, align 1, !tbaa !13
  store i32 0, ptr %11, align 4, !tbaa !8
  br label %39

39:                                               ; preds = %64, %38
  %40 = load i32, ptr %11, align 4, !tbaa !8
  %41 = icmp slt i32 %40, 8
  br i1 %41, label %42, label %67

42:                                               ; preds = %39
  %43 = load ptr, ptr %6, align 8, !tbaa !68
  %44 = load i32, ptr %10, align 4, !tbaa !8
  %45 = load i32, ptr %7, align 4, !tbaa !8
  %46 = mul nsw i32 %44, %45
  %47 = load i32, ptr %9, align 4, !tbaa !8
  %48 = load i32, ptr %11, align 4, !tbaa !8
  %49 = add nsw i32 %47, %48
  %50 = add nsw i32 %46, %49
  %51 = sext i32 %50 to i64
  %52 = getelementptr inbounds i8, ptr %43, i64 %51
  %53 = load i8, ptr %52, align 1, !tbaa !13
  %54 = zext i8 %53 to i32
  %55 = icmp eq i32 %54, 0
  br i1 %55, label %56, label %63

56:                                               ; preds = %42
  %57 = load i32, ptr %11, align 4, !tbaa !8
  %58 = shl i32 1, %57
  %59 = load i8, ptr %12, align 1, !tbaa !13
  %60 = zext i8 %59 to i32
  %61 = or i32 %60, %58
  %62 = trunc i32 %61 to i8
  store i8 %62, ptr %12, align 1, !tbaa !13
  br label %63

63:                                               ; preds = %56, %42
  br label %64

64:                                               ; preds = %63
  %65 = load i32, ptr %11, align 4, !tbaa !8
  %66 = add nsw i32 %65, 1
  store i32 %66, ptr %11, align 4, !tbaa !8
  br label %39, !llvm.loop !72

67:                                               ; preds = %39
  %68 = load i8, ptr %12, align 1, !tbaa !13
  %69 = load ptr, ptr %5, align 8, !tbaa !3
  %70 = getelementptr inbounds nuw %struct.st_stbcc_grid, ptr %69, i32 0, i32 5
  %71 = load i32, ptr %10, align 4, !tbaa !8
  %72 = sext i32 %71 to i64
  %73 = getelementptr inbounds [1024 x [128 x i8]], ptr %70, i64 0, i64 %72
  %74 = load i32, ptr %9, align 4, !tbaa !8
  %75 = ashr i32 %74, 3
  %76 = sext i32 %75 to i64
  %77 = getelementptr inbounds [128 x i8], ptr %73, i64 0, i64 %76
  store i8 %68, ptr %77, align 1, !tbaa !13
  call void @llvm.lifetime.end.p0(i64 1, ptr %12) #4
  br label %78

78:                                               ; preds = %67
  %79 = load i32, ptr %9, align 4, !tbaa !8
  %80 = add nsw i32 %79, 8
  store i32 %80, ptr %9, align 4, !tbaa !8
  br label %34, !llvm.loop !73

81:                                               ; preds = %34
  br label %82

82:                                               ; preds = %81
  %83 = load i32, ptr %10, align 4, !tbaa !8
  %84 = add nsw i32 %83, 1
  store i32 %84, ptr %10, align 4, !tbaa !8
  br label %29, !llvm.loop !74

85:                                               ; preds = %29
  store i32 0, ptr %10, align 4, !tbaa !8
  br label %86

86:                                               ; preds = %107, %85
  %87 = load i32, ptr %10, align 4, !tbaa !8
  %88 = load ptr, ptr %5, align 8, !tbaa !3
  %89 = getelementptr inbounds nuw %struct.st_stbcc_grid, ptr %88, i32 0, i32 3
  %90 = load i32, ptr %89, align 4, !tbaa !38
  %91 = icmp slt i32 %87, %90
  br i1 %91, label %92, label %110

92:                                               ; preds = %86
  store i32 0, ptr %9, align 4, !tbaa !8
  br label %93

93:                                               ; preds = %103, %92
  %94 = load i32, ptr %9, align 4, !tbaa !8
  %95 = load ptr, ptr %5, align 8, !tbaa !3
  %96 = getelementptr inbounds nuw %struct.st_stbcc_grid, ptr %95, i32 0, i32 2
  %97 = load i32, ptr %96, align 4, !tbaa !36
  %98 = icmp slt i32 %94, %97
  br i1 %98, label %99, label %106

99:                                               ; preds = %93
  %100 = load ptr, ptr %5, align 8, !tbaa !3
  %101 = load i32, ptr %9, align 4, !tbaa !8
  %102 = load i32, ptr %10, align 4, !tbaa !8
  call void @stbcc__build_clumps_for_cluster(ptr noundef %100, i32 noundef %101, i32 noundef %102)
  br label %103

103:                                              ; preds = %99
  %104 = load i32, ptr %9, align 4, !tbaa !8
  %105 = add nsw i32 %104, 1
  store i32 %105, ptr %9, align 4, !tbaa !8
  br label %93, !llvm.loop !75

106:                                              ; preds = %93
  br label %107

107:                                              ; preds = %106
  %108 = load i32, ptr %10, align 4, !tbaa !8
  %109 = add nsw i32 %108, 1
  store i32 %109, ptr %10, align 4, !tbaa !8
  br label %86, !llvm.loop !76

110:                                              ; preds = %86
  store i32 0, ptr %10, align 4, !tbaa !8
  br label %111

111:                                              ; preds = %132, %110
  %112 = load i32, ptr %10, align 4, !tbaa !8
  %113 = load ptr, ptr %5, align 8, !tbaa !3
  %114 = getelementptr inbounds nuw %struct.st_stbcc_grid, ptr %113, i32 0, i32 3
  %115 = load i32, ptr %114, align 4, !tbaa !38
  %116 = icmp slt i32 %112, %115
  br i1 %116, label %117, label %135

117:                                              ; preds = %111
  store i32 0, ptr %9, align 4, !tbaa !8
  br label %118

118:                                              ; preds = %128, %117
  %119 = load i32, ptr %9, align 4, !tbaa !8
  %120 = load ptr, ptr %5, align 8, !tbaa !3
  %121 = getelementptr inbounds nuw %struct.st_stbcc_grid, ptr %120, i32 0, i32 2
  %122 = load i32, ptr %121, align 4, !tbaa !36
  %123 = icmp slt i32 %119, %122
  br i1 %123, label %124, label %131

124:                                              ; preds = %118
  %125 = load ptr, ptr %5, align 8, !tbaa !3
  %126 = load i32, ptr %9, align 4, !tbaa !8
  %127 = load i32, ptr %10, align 4, !tbaa !8
  call void @stbcc__build_all_connections_for_cluster(ptr noundef %125, i32 noundef %126, i32 noundef %127)
  br label %128

128:                                              ; preds = %124
  %129 = load i32, ptr %9, align 4, !tbaa !8
  %130 = add nsw i32 %129, 1
  store i32 %130, ptr %9, align 4, !tbaa !8
  br label %118, !llvm.loop !77

131:                                              ; preds = %118
  br label %132

132:                                              ; preds = %131
  %133 = load i32, ptr %10, align 4, !tbaa !8
  %134 = add nsw i32 %133, 1
  store i32 %134, ptr %10, align 4, !tbaa !8
  br label %111, !llvm.loop !78

135:                                              ; preds = %111
  %136 = load ptr, ptr %5, align 8, !tbaa !3
  call void @stbcc__build_connected_components_for_clumps(ptr noundef %136)
  store i32 0, ptr %10, align 4, !tbaa !8
  br label %137

137:                                              ; preds = %155, %135
  %138 = load i32, ptr %10, align 4, !tbaa !8
  %139 = load ptr, ptr %5, align 8, !tbaa !3
  %140 = getelementptr inbounds nuw %struct.st_stbcc_grid, ptr %139, i32 0, i32 1
  %141 = load i32, ptr %140, align 4, !tbaa !71
  %142 = icmp slt i32 %138, %141
  br i1 %142, label %143, label %158

143:                                              ; preds = %137
  store i32 0, ptr %9, align 4, !tbaa !8
  br label %144

144:                                              ; preds = %151, %143
  %145 = load i32, ptr %9, align 4, !tbaa !8
  %146 = load ptr, ptr %5, align 8, !tbaa !3
  %147 = getelementptr inbounds nuw %struct.st_stbcc_grid, ptr %146, i32 0, i32 0
  %148 = load i32, ptr %147, align 4, !tbaa !70
  %149 = icmp slt i32 %145, %148
  br i1 %149, label %150, label %154

150:                                              ; preds = %144
  br label %151

151:                                              ; preds = %150
  %152 = load i32, ptr %9, align 4, !tbaa !8
  %153 = add nsw i32 %152, 1
  store i32 %153, ptr %9, align 4, !tbaa !8
  br label %144, !llvm.loop !79

154:                                              ; preds = %144
  br label %155

155:                                              ; preds = %154
  %156 = load i32, ptr %10, align 4, !tbaa !8
  %157 = add nsw i32 %156, 1
  store i32 %157, ptr %10, align 4, !tbaa !8
  br label %137, !llvm.loop !80

158:                                              ; preds = %137
  call void @llvm.lifetime.end.p0(i64 4, ptr %11) #4
  call void @llvm.lifetime.end.p0(i64 4, ptr %10) #4
  call void @llvm.lifetime.end.p0(i64 4, ptr %9) #4
  ret void
}