; Function Attrs: nofree nosync nounwind memory(argmem: readwrite) uwtable
define void @stbcc_init_grid(ptr noundef captures(none) initializes((0, 20)) %0, ptr noundef readonly captures(none) %1, i32 noundef %2, i32 noundef %3) local_unnamed_addr #3 {
  store i32 %2, ptr %0, align 4, !tbaa !57
  %5 = getelementptr inbounds nuw i8, ptr %0, i64 4
  store i32 %3, ptr %5, align 4, !tbaa !58
  %6 = ashr i32 %2, 5
  %7 = getelementptr inbounds nuw i8, ptr %0, i64 8
  store i32 %6, ptr %7, align 4, !tbaa !25
  %8 = ashr i32 %3, 5
  %9 = getelementptr inbounds nuw i8, ptr %0, i64 12
  store i32 %8, ptr %9, align 4, !tbaa !28
  %10 = getelementptr inbounds nuw i8, ptr %0, i64 16
  store i32 0, ptr %10, align 4, !tbaa !34
  %11 = icmp sgt i32 %3, 0
  br i1 %11, label %.preheader65.lr.ph, label %.preheader63

.preheader65.lr.ph:                               ; preds = %4
  %12 = icmp sgt i32 %2, 0
  %13 = getelementptr inbounds nuw i8, ptr %0, i64 20
  br i1 %12, label %.preheader65.us.preheader, label %.preheader63

.preheader65.us.preheader:                        ; preds = %.preheader65.lr.ph
  %14 = zext nneg i32 %2 to i64
  %15 = zext nneg i32 %2 to i64
  %wide.trip.count = zext nneg i32 %3 to i64
  br label %.preheader65.us

.preheader65.us:                                  ; preds = %.preheader65.us.preheader, %._crit_edge.us
  %indvars.iv85 = phi i64 [ 0, %.preheader65.us.preheader ], [ %indvars.iv.next86, %._crit_edge.us ]
  %16 = mul nuw nsw i64 %indvars.iv85, %15
  br label %.preheader64.us

17:                                               ; preds = %21
  %18 = lshr exact i64 %indvars.iv82, 3
  %19 = getelementptr inbounds nuw [1024 x [128 x i8]], ptr %13, i64 0, i64 %indvars.iv85, i64 %18
  store i8 %.1.us, ptr %19, align 1, !tbaa !7
  %indvars.iv.next83 = add nuw nsw i64 %indvars.iv82, 8
  %20 = icmp samesign ult i64 %indvars.iv.next83, %14
  br i1 %20, label %.preheader64.us, label %._crit_edge.us, !llvm.loop !59

21:                                               ; preds = %.preheader64.us, %21
  %indvars.iv = phi i64 [ 0, %.preheader64.us ], [ %indvars.iv.next, %21 ]
  %.067.us = phi i8 [ 0, %.preheader64.us ], [ %.1.us, %21 ]
  %22 = trunc nuw nsw i64 %indvars.iv to i32
  %23 = add nuw i64 %31, %indvars.iv
  %sext = shl i64 %23, 32
  %24 = ashr exact i64 %sext, 32
  %25 = getelementptr inbounds i8, ptr %1, i64 %24
  %26 = load i8, ptr %25, align 1, !tbaa !7
  %27 = icmp eq i8 %26, 0
  %28 = shl nuw nsw i32 1, %22
  %29 = trunc nuw i32 %28 to i8
  %30 = select i1 %27, i8 %29, i8 0
  %.1.us = or i8 %30, %.067.us
  %indvars.iv.next = add nuw nsw i64 %indvars.iv, 1
  %exitcond.not = icmp eq i64 %indvars.iv.next, 8
  br i1 %exitcond.not, label %17, label %21, !llvm.loop !60

.preheader64.us:                                  ; preds = %.preheader65.us, %17
  %indvars.iv82 = phi i64 [ 0, %.preheader65.us ], [ %indvars.iv.next83, %17 ]
  %31 = add nuw nsw i64 %indvars.iv82, %16
  br label %21

._crit_edge.us:                                   ; preds = %17
  %indvars.iv.next86 = add nuw nsw i64 %indvars.iv85, 1
  %exitcond88.not = icmp eq i64 %indvars.iv.next86, %wide.trip.count
  br i1 %exitcond88.not, label %.preheader63, label %.preheader65.us, !llvm.loop !61

.preheader63:                                     ; preds = %._crit_edge.us, %.preheader65.lr.ph, %4
  %32 = icmp sgt i32 %8, 0
  %33 = icmp sgt i32 %6, 0
  %or.cond = and i1 %32, %33
  br i1 %or.cond, label %.preheader62, label %._crit_edge76

.preheader62:                                     ; preds = %.preheader63, %._crit_edge
  %34 = phi i32 [ %42, %._crit_edge ], [ %8, %.preheader63 ]
  %35 = phi i32 [ %43, %._crit_edge ], [ %6, %.preheader63 ]
  %.15471 = phi i32 [ %44, %._crit_edge ], [ 0, %.preheader63 ]
  %36 = icmp sgt i32 %35, 0
  br i1 %36, label %.lr.ph, label %._crit_edge

.preheader61:                                     ; preds = %._crit_edge
  %37 = icmp sgt i32 %42, 0
  %38 = icmp sgt i32 %43, 0
  %or.cond94 = and i1 %37, %38
  br i1 %or.cond94, label %.preheader60, label %._crit_edge76

.lr.ph:                                           ; preds = %.preheader62, %.lr.ph
  %.15670 = phi i32 [ %39, %.lr.ph ], [ 0, %.preheader62 ]
  tail call void @stbcc__build_clumps_for_cluster(ptr noundef nonnull %0, i32 noundef %.15670, i32 noundef %.15471)
  %39 = add nuw nsw i32 %.15670, 1
  %40 = load i32, ptr %7, align 4, !tbaa !25
  %41 = icmp slt i32 %39, %40
  br i1 %41, label %.lr.ph, label %._crit_edge.loopexit, !llvm.loop !62

._crit_edge.loopexit:                             ; preds = %.lr.ph
  %.pre = load i32, ptr %9, align 4, !tbaa !28
  br label %._crit_edge

._crit_edge:                                      ; preds = %._crit_edge.loopexit, %.preheader62
  %42 = phi i32 [ %.pre, %._crit_edge.loopexit ], [ %34, %.preheader62 ]
  %43 = phi i32 [ %40, %._crit_edge.loopexit ], [ %35, %.preheader62 ]
  %44 = add nuw nsw i32 %.15471, 1
  %45 = icmp slt i32 %44, %42
  br i1 %45, label %.preheader62, label %.preheader61, !llvm.loop !63

.preheader60:                                     ; preds = %.preheader61, %._crit_edge74
  %46 = phi i32 [ %52, %._crit_edge74 ], [ %42, %.preheader61 ]
  %47 = phi i32 [ %53, %._crit_edge74 ], [ %43, %.preheader61 ]
  %.275 = phi i32 [ %54, %._crit_edge74 ], [ 0, %.preheader61 ]
  %48 = icmp sgt i32 %47, 0
  br i1 %48, label %.lr.ph73, label %._crit_edge74

.lr.ph73:                                         ; preds = %.preheader60, %.lr.ph73
  %.25772 = phi i32 [ %49, %.lr.ph73 ], [ 0, %.preheader60 ]
  tail call void @stbcc__build_all_connections_for_cluster(ptr noundef nonnull %0, i32 noundef %.25772, i32 noundef %.275)
  %49 = add nuw nsw i32 %.25772, 1
  %50 = load i32, ptr %7, align 4, !tbaa !25
  %51 = icmp slt i32 %49, %50
  br i1 %51, label %.lr.ph73, label %._crit_edge74.loopexit, !llvm.loop !65

._crit_edge74.loopexit:                           ; preds = %.lr.ph73
  %.pre89 = load i32, ptr %9, align 4, !tbaa !28
  br label %._crit_edge74

._crit_edge74:                                    ; preds = %._crit_edge74.loopexit, %.preheader60
  %52 = phi i32 [ %.pre89, %._crit_edge74.loopexit ], [ %46, %.preheader60 ]
  %53 = phi i32 [ %50, %._crit_edge74.loopexit ], [ %47, %.preheader60 ]
  %54 = add nuw nsw i32 %.275, 1
  %55 = icmp slt i32 %54, %52
  br i1 %55, label %.preheader60, label %._crit_edge76, !llvm.loop !66

._crit_edge76:                                    ; preds = %._crit_edge74, %.preheader63, %.preheader61
  tail call void @stbcc__build_connected_components_for_clumps(ptr noundef nonnull %0)
  ret void
}